; Function Attrs: mustprogress uwtable
define hidden void @_ZN14solver2smt2_pp11assert_exprEP4exprS1_(ptr noundef nonnull align 8 dereferenceable(1240) %0, ptr noundef %1, ptr noundef %2) local_unnamed_addr #3 align 2 {
  tail call void @_ZN11ast_pp_util7collectEP4expr(ptr noundef nonnull align 8 dereferenceable(704) %0, ptr noundef %1)
  tail call void @_ZN11ast_pp_util7collectEP4expr(ptr noundef nonnull align 8 dereferenceable(704) %0, ptr noundef %2)
  %4 = getelementptr inbounds nuw i8, ptr %0, i64 704
  tail call void @_ZN11ast_pp_util13display_declsERSo(ptr noundef nonnull align 8 dereferenceable(704) %0, ptr noundef nonnull align 8 dereferenceable(8) %4)
  tail call void @_ZN11ast_pp_util24display_assert_and_trackERSoP4exprS2_b(ptr noundef nonnull align 8 dereferenceable(704) %0, ptr noundef nonnull align 8 dereferenceable(8) %4, ptr noundef %1, ptr noundef %2, i1 noundef zeroext true)
  %.not.i.i.i.i = icmp eq ptr %2, null
  br i1 %.not.i.i.i.i, label %_ZN15ref_vector_coreI4expr19ref_manager_wrapperIS0_11ast_managerEE7inc_refEPS0_.exit.i, label %5

5:                                                ; preds = %3
  %6 = getelementptr inbounds nuw i8, ptr %2, i64 8
  %7 = load i32, ptr %6, align 4, !tbaa !3
  %8 = add i32 %7, 1
  store i32 %8, ptr %6, align 4, !tbaa !3
  br label %_ZN15ref_vector_coreI4expr19ref_manager_wrapperIS0_11ast_managerEE7inc_refEPS0_.exit.i

_ZN15ref_vector_coreI4expr19ref_manager_wrapperIS0_11ast_managerEE7inc_refEPS0_.exit.i: ; preds = %5, %3
  %9 = getelementptr inbounds nuw i8, ptr %0, i64 1224
  %10 = load ptr, ptr %9, align 8, !tbaa !8
  %11 = icmp eq ptr %10, null
  br i1 %11, label %18, label %12

12:                                               ; preds = %_ZN15ref_vector_coreI4expr19ref_manager_wrapperIS0_11ast_managerEE7inc_refEPS0_.exit.i
  %13 = getelementptr inbounds i8, ptr %10, i64 -4
  %14 = load i32, ptr %13, align 4, !tbaa !13
  %15 = getelementptr inbounds i8, ptr %10, i64 -8
  %16 = load i32, ptr %15, align 4, !tbaa !13
  %17 = icmp eq i32 %14, %16
  br i1 %17, label %18, label %_ZN15ref_vector_coreI4expr19ref_manager_wrapperIS0_11ast_managerEE9push_backEPS0_.exit

18:                                               ; preds = %12, %_ZN15ref_vector_coreI4expr19ref_manager_wrapperIS0_11ast_managerEE7inc_refEPS0_.exit.i
  tail call void @_ZN6vectorIP4exprLb0EjE13expand_vectorEv(ptr noundef nonnull align 8 dereferenceable(8) %9)
  %.pre.i.i = load ptr, ptr %9, align 8, !tbaa !8
  %.phi.trans.insert.i.i = getelementptr inbounds i8, ptr %.pre.i.i, i64 -4
  %.pre2.i.i = load i32, ptr %.phi.trans.insert.i.i, align 4, !tbaa !13
  br label %_ZN15ref_vector_coreI4expr19ref_manager_wrapperIS0_11ast_managerEE9push_backEPS0_.exit

_ZN15ref_vector_coreI4expr19ref_manager_wrapperIS0_11ast_managerEE9push_backEPS0_.exit: ; preds = %12, %18
  %19 = phi i32 [ %.pre2.i.i, %18 ], [ %14, %12 ]
  %20 = phi ptr [ %.pre.i.i, %18 ], [ %10, %12 ]
  %21 = getelementptr inbounds i8, ptr %20, i64 -4
  %22 = zext i32 %19 to i64
  %23 = getelementptr inbounds nuw ptr, ptr %20, i64 %22
  store ptr %2, ptr %23, align 8, !tbaa !14
  %24 = add i32 %19, 1
  store i32 %24, ptr %21, align 4, !tbaa !13
  ret void
}